; Function Attrs: mustprogress uwtable
define dso_local void @_ZNK2cm6String6substrEmm(ptr dead_on_unwind noalias writable writeonly sret(%"class.cm::String") align 8 captures(none) %0, ptr noundef nonnull readonly align 8 captures(none) dereferenceable(32) %1, i64 noundef %2, i64 noundef %3) local_unnamed_addr #2 align 2 personality ptr @__gxx_personality_v0 {
  %5 = getelementptr inbounds nuw i8, ptr %1, i64 16
  %6 = load i64, ptr %5, align 8, !tbaa !11
  %7 = icmp ugt i64 %2, %6
  br i1 %7, label %8, label %13

8:                                                ; preds = %4
  %9 = tail call ptr @__cxa_allocate_exception(i64 16) #20
  invoke void @_ZNSt12out_of_rangeC1EPKc(ptr noundef nonnull align 8 dereferenceable(16) %9, ptr noundef nonnull @.str.1)
          to label %10 unwind label %11

10:                                               ; preds = %8
  tail call void @__cxa_throw(ptr nonnull %9, ptr nonnull @_ZTISt12out_of_range, ptr nonnull @_ZNSt12out_of_rangeD1Ev) #21
  unreachable

11:                                               ; preds = %8
  %12 = landingpad { ptr, i32 }
          cleanup
  tail call void @__cxa_free_exception(ptr nonnull %9) #20
  resume { ptr, i32 } %12

13:                                               ; preds = %4
  %14 = load ptr, ptr %1, align 8, !tbaa !12
  store ptr %14, ptr %0, align 8, !tbaa !12
  %15 = getelementptr inbounds nuw i8, ptr %0, i64 8
  %16 = getelementptr inbounds nuw i8, ptr %1, i64 8
  %17 = load ptr, ptr %16, align 8, !tbaa !17
  store ptr %17, ptr %15, align 8, !tbaa !17
  %.not.i.i.i.i = icmp eq ptr %17, null
  br i1 %.not.i.i.i.i, label %_ZN2cm6StringC2ERKS0_mm.exit, label %18

18:                                               ; preds = %13
  %19 = getelementptr inbounds nuw i8, ptr %17, i64 8
  %20 = load i8, ptr @__libc_single_threaded, align 1, !tbaa !25
  %.not.i.i.i.i.i = icmp eq i8 %20, 0
  br i1 %.not.i.i.i.i.i, label %24, label %21

21:                                               ; preds = %18
  %22 = load i32, ptr %19, align 4, !tbaa !26
  %23 = add nsw i32 %22, 1
  store i32 %23, ptr %19, align 4, !tbaa !26
  br label %_ZN2cm6StringC2ERKS0_mm.exit

24:                                               ; preds = %18
  %25 = atomicrmw volatile add ptr %19, i32 1 acq_rel, align 4
  %.pre = load i64, ptr %5, align 8, !tbaa !11
  br label %_ZN2cm6StringC2ERKS0_mm.exit

_ZN2cm6StringC2ERKS0_mm.exit:                     ; preds = %13, %21, %24
  %26 = phi i64 [ %6, %13 ], [ %6, %21 ], [ %.pre, %24 ]
  %27 = getelementptr inbounds nuw i8, ptr %0, i64 16
  %28 = getelementptr inbounds nuw i8, ptr %1, i64 24
  %29 = load ptr, ptr %28, align 8, !tbaa !4
  %30 = getelementptr inbounds nuw i8, ptr %29, i64 %2
  %31 = sub i64 %26, %2
  %.sroa.speculated.i = tail call i64 @llvm.umin.i64(i64 %31, i64 %3)
  store i64 %.sroa.speculated.i, ptr %27, align 8, !tbaa !11
  %32 = getelementptr inbounds nuw i8, ptr %0, i64 24
  store ptr %30, ptr %32, align 8, !tbaa !4
  ret void
}